#include <math.h>
#include <stdio.h>
#include <stdlib.h>
#include <string.h>

int main(int argc, char* argv[])
{
	int k,n,i,j;
	double a[1000],total=0,pf=0,jz,s;
	scanf("%d",&k);
	for(i=0;i<k;i++){
			scanf("%d",&n);
			total=0;
			pf=0;
			jz=0;
			s=0;
			for(j=0;j<n;j++){
				scanf("%lf",&a[j]);
			}
			for(j=0;j<n;j++){
				total+=a[j];
			}
			jz=total/n;
			for(j=0;j<n;j++){
				pf+=(a[j]-jz)*(a[j]-jz);
			}
			s=sqrt(pf/n);
			printf("%.5f\n",s);
	}
	return 0;
}