; ModuleID = '38/38.c'
source_filename = "38/38.c"
target datalayout = "e-m:e-p270:32:32-p271:32:32-p272:64:64-i64:64-f80:128-n8:16:32:64-S128"
target triple = "x86_64-pc-linux-gnu"

@.str = private unnamed_addr constant [3 x i8] c"%d\00", align 1
@.str.1 = private unnamed_addr constant [4 x i8] c"%lf\00", align 1
@.str.2 = private unnamed_addr constant [6 x i8] c"%.5f\0A\00", align 1

; Function Attrs: noinline nounwind uwtable
define dso_local i32 @main(i32 %0, i8** %1) #0 {
  %3 = alloca i32, align 4
  %4 = alloca i32, align 4
  %5 = alloca i8**, align 8
  %6 = alloca i32, align 4
  %7 = alloca i32, align 4
  %8 = alloca i32, align 4
  %9 = alloca i32, align 4
  %10 = alloca [1000 x double], align 16
  %11 = alloca double, align 8
  %12 = alloca double, align 8
  %13 = alloca double, align 8
  %14 = alloca double, align 8
  store i32 0, i32* %3, align 4
  store i32 %0, i32* %4, align 4
  store i8** %1, i8*** %5, align 8
  store double 0.000000e+00, double* %11, align 8
  store double 0.000000e+00, double* %12, align 8
  %15 = call i32 (i8*, ...) @__isoc99_scanf(i8* getelementptr inbounds ([3 x i8], [3 x i8]* @.str, i64 0, i64 0), i32* %6)
  store i32 0, i32* %8, align 4
  br label %16

16:                                               ; preds = %85, %2
  %17 = load i32, i32* %8, align 4
  %18 = load i32, i32* %6, align 4
  %19 = icmp slt i32 %17, %18
  br i1 %19, label %20, label %88

20:                                               ; preds = %16
  %21 = call i32 (i8*, ...) @__isoc99_scanf(i8* getelementptr inbounds ([3 x i8], [3 x i8]* @.str, i64 0, i64 0), i32* %7)
  store double 0.000000e+00, double* %11, align 8
  store double 0.000000e+00, double* %12, align 8
  store double 0.000000e+00, double* %13, align 8
  store double 0.000000e+00, double* %14, align 8
  store i32 0, i32* %9, align 4
  br label %22

22:                                               ; preds = %31, %20
  %23 = load i32, i32* %9, align 4
  %24 = load i32, i32* %7, align 4
  %25 = icmp slt i32 %23, %24
  br i1 %25, label %26, label %34

26:                                               ; preds = %22
  %27 = load i32, i32* %9, align 4
  %28 = sext i32 %27 to i64
  %29 = getelementptr inbounds [1000 x double], [1000 x double]* %10, i64 0, i64 %28
  %30 = call i32 (i8*, ...) @__isoc99_scanf(i8* getelementptr inbounds ([4 x i8], [4 x i8]* @.str.1, i64 0, i64 0), double* %29)
  br label %31

31:                                               ; preds = %26
  %32 = load i32, i32* %9, align 4
  %33 = add nsw i32 %32, 1
  store i32 %33, i32* %9, align 4
  br label %22

34:                                               ; preds = %22
  store i32 0, i32* %9, align 4
  br label %35

35:                                               ; preds = %46, %34
  %36 = load i32, i32* %9, align 4
  %37 = load i32, i32* %7, align 4
  %38 = icmp slt i32 %36, %37
  br i1 %38, label %39, label %49

39:                                               ; preds = %35
  %40 = load i32, i32* %9, align 4
  %41 = sext i32 %40 to i64
  %42 = getelementptr inbounds [1000 x double], [1000 x double]* %10, i64 0, i64 %41
  %43 = load double, double* %42, align 8
  %44 = load double, double* %11, align 8
  %45 = fadd double %44, %43
  store double %45, double* %11, align 8
  br label %46

46:                                               ; preds = %39
  %47 = load i32, i32* %9, align 4
  %48 = add nsw i32 %47, 1
  store i32 %48, i32* %9, align 4
  br label %35

49:                                               ; preds = %35
  %50 = load double, double* %11, align 8
  %51 = load i32, i32* %7, align 4
  %52 = sitofp i32 %51 to double
  %53 = fdiv double %50, %52
  store double %53, double* %13, align 8
  store i32 0, i32* %9, align 4
  br label %54

54:                                               ; preds = %74, %49
  %55 = load i32, i32* %9, align 4
  %56 = load i32, i32* %7, align 4
  %57 = icmp slt i32 %55, %56
  br i1 %57, label %58, label %77

58:                                               ; preds = %54
  %59 = load i32, i32* %9, align 4
  %60 = sext i32 %59 to i64
  %61 = getelementptr inbounds [1000 x double], [1000 x double]* %10, i64 0, i64 %60
  %62 = load double, double* %61, align 8
  %63 = load double, double* %13, align 8
  %64 = fsub double %62, %63
  %65 = load i32, i32* %9, align 4
  %66 = sext i32 %65 to i64
  %67 = getelementptr inbounds [1000 x double], [1000 x double]* %10, i64 0, i64 %66
  %68 = load double, double* %67, align 8
  %69 = load double, double* %13, align 8
  %70 = fsub double %68, %69
  %71 = fmul double %64, %70
  %72 = load double, double* %12, align 8
  %73 = fadd double %72, %71
  store double %73, double* %12, align 8
  br label %74

74:                                               ; preds = %58
  %75 = load i32, i32* %9, align 4
  %76 = add nsw i32 %75, 1
  store i32 %76, i32* %9, align 4
  br label %54

77:                                               ; preds = %54
  %78 = load double, double* %12, align 8
  %79 = load i32, i32* %7, align 4
  %80 = sitofp i32 %79 to double
  %81 = fdiv double %78, %80
  %82 = call double @sqrt(double %81) #3
  store double %82, double* %14, align 8
  %83 = load double, double* %14, align 8
  %84 = call i32 (i8*, ...) @printf(i8* getelementptr inbounds ([6 x i8], [6 x i8]* @.str.2, i64 0, i64 0), double %83)
  br label %85

85:                                               ; preds = %77
  %86 = load i32, i32* %8, align 4
  %87 = add nsw i32 %86, 1
  store i32 %87, i32* %8, align 4
  br label %16

88:                                               ; preds = %16
  ret i32 0
}

declare dso_local i32 @__isoc99_scanf(i8*, ...) #1

; Function Attrs: nounwind
declare dso_local double @sqrt(double) #2

declare dso_local i32 @printf(i8*, ...) #1


!llvm.module.flags = !{!0}
!llvm.ident = !{!1}

!0 = !{i32 1, !"wchar_size", i32 4}
!1 = !{!"clang version 10.0.0-4ubuntu1 "}
